target datalayout = "e-m:e-p270:32:32-p271:32:32-p272:64:64-i64:64-i128:128-f80:128-n8:16:32:64-S128"
target triple = "x86_64-pc-linux-gnu"

%struct.AVRational = type { i32, i32 }
%struct.SyncQueue = type { i32, ptr, i32, i32, i32, i64, ptr, i32, i32, i64 }
%struct.SyncQueueStream = type { ptr, %struct.AVRational, i64, i64, i32, i32, i64, i64, i64, i32 }

@.str = private unnamed_addr constant [30 x i8] c"Assertion %s failed at %s:%d\0A\00", align 1
@.str.2 = private unnamed_addr constant [21 x i8] c"fftools/sync_queue.c\00", align 1
@.str.13 = private unnamed_addr constant [18 x i8] c"sq->have_limiting\00", align 1
@.str.14 = private unnamed_addr constant [38 x i8] c"first_limiting < (2147483647 *2U +1U)\00", align 1

; Function Attrs: nounwind uwtable
define internal void @queue_head_update(ptr noundef %0) #0 {
  %2 = alloca ptr, align 8
  %3 = alloca i32, align 4
  %4 = alloca i32, align 4
  %5 = alloca i32, align 4
  %6 = alloca ptr, align 8
  %7 = alloca i32, align 4
  %8 = alloca ptr, align 8
  %9 = alloca ptr, align 8
  store ptr %0, ptr %2, align 8, !tbaa !4
  br label %10

10:                                               ; preds = %1
  %11 = load ptr, ptr %2, align 8, !tbaa !4
  %12 = getelementptr inbounds nuw %struct.SyncQueue, ptr %11, i32 0, i32 8
  %13 = load i32, ptr %12, align 4, !tbaa !69
  %14 = icmp ne i32 %13, 0
  br i1 %14, label %16, label %15

15:                                               ; preds = %10
  call void (ptr, i32, ptr, ...) @av_log(ptr noundef null, i32 noundef 0, ptr noundef @.str, ptr noundef @.str.13, ptr noundef @.str.2, i32 noundef 210)
  call void @abort() #9
  unreachable

16:                                               ; preds = %10
  br label %17

17:                                               ; preds = %16
  %18 = load ptr, ptr %2, align 8, !tbaa !4
  %19 = getelementptr inbounds nuw %struct.SyncQueue, ptr %18, i32 0, i32 3
  %20 = load i32, ptr %19, align 4, !tbaa !63
  %21 = icmp slt i32 %20, 0
  br i1 %21, label %22, label %76

22:                                               ; preds = %17
  call void @llvm.lifetime.start.p0(i64 4, ptr %3) #8
  store i32 -1, ptr %3, align 4, !tbaa !9
  call void @llvm.lifetime.start.p0(i64 4, ptr %4) #8
  store i32 0, ptr %4, align 4, !tbaa !9
  br label %23

23:                                               ; preds = %57, %22
  %24 = load i32, ptr %4, align 4, !tbaa !9
  %25 = load ptr, ptr %2, align 8, !tbaa !4
  %26 = getelementptr inbounds nuw %struct.SyncQueue, ptr %25, i32 0, i32 7
  %27 = load i32, ptr %26, align 8, !tbaa !11
  %28 = icmp ult i32 %24, %27
  br i1 %28, label %30, label %29

29:                                               ; preds = %23
  store i32 4, ptr %5, align 4
  br label %60

30:                                               ; preds = %23
  call void @llvm.lifetime.start.p0(i64 8, ptr %6) #8
  %31 = load ptr, ptr %2, align 8, !tbaa !4
  %32 = getelementptr inbounds nuw %struct.SyncQueue, ptr %31, i32 0, i32 6
  %33 = load ptr, ptr %32, align 8, !tbaa !15
  %34 = load i32, ptr %4, align 4, !tbaa !9
  %35 = zext i32 %34 to i64
  %36 = getelementptr inbounds nuw %struct.SyncQueueStream, ptr %33, i64 %35
  store ptr %36, ptr %6, align 8, !tbaa !16
  %37 = load ptr, ptr %6, align 8, !tbaa !16
  %38 = getelementptr inbounds nuw %struct.SyncQueueStream, ptr %37, i32 0, i32 4
  %39 = load i32, ptr %38, align 8, !tbaa !44
  %40 = icmp ne i32 %39, 0
  br i1 %40, label %42, label %41

41:                                               ; preds = %30
  store i32 6, ptr %5, align 4
  br label %54

42:                                               ; preds = %30
  %43 = load ptr, ptr %6, align 8, !tbaa !16
  %44 = getelementptr inbounds nuw %struct.SyncQueueStream, ptr %43, i32 0, i32 3
  %45 = load i64, ptr %44, align 8, !tbaa !43
  %46 = icmp eq i64 %45, -9223372036854775808
  br i1 %46, label %47, label %48

47:                                               ; preds = %42
  store i32 1, ptr %5, align 4
  br label %54

48:                                               ; preds = %42
  %49 = load i32, ptr %3, align 4, !tbaa !9
  %50 = icmp eq i32 %49, -1
  br i1 %50, label %51, label %53

51:                                               ; preds = %48
  %52 = load i32, ptr %4, align 4, !tbaa !9
  store i32 %52, ptr %3, align 4, !tbaa !9
  br label %53

53:                                               ; preds = %51, %48
  store i32 0, ptr %5, align 4
  br label %54

54:                                               ; preds = %53, %47, %41
  call void @llvm.lifetime.end.p0(i64 8, ptr %6) #8
  %55 = load i32, ptr %5, align 4
  switch i32 %55, label %60 [
    i32 0, label %56
    i32 6, label %57
  ]

56:                                               ; preds = %54
  br label %57

57:                                               ; preds = %56, %54
  %58 = load i32, ptr %4, align 4, !tbaa !9
  %59 = add i32 %58, 1
  store i32 %59, ptr %4, align 4, !tbaa !9
  br label %23, !llvm.loop !75

60:                                               ; preds = %54, %29
  call void @llvm.lifetime.end.p0(i64 4, ptr %4) #8
  %61 = load i32, ptr %5, align 4
  switch i32 %61, label %73 [
    i32 4, label %62
  ]

62:                                               ; preds = %60
  br label %63

63:                                               ; preds = %62
  %64 = load i32, ptr %3, align 4, !tbaa !9
  %65 = icmp ult i32 %64, -1
  br i1 %65, label %67, label %66

66:                                               ; preds = %63
  call void (ptr, i32, ptr, ...) @av_log(ptr noundef null, i32 noundef 0, ptr noundef @.str, ptr noundef @.str.14, ptr noundef @.str.2, i32 noundef 228)
  call void @abort() #9
  unreachable

67:                                               ; preds = %63
  br label %68

68:                                               ; preds = %67
  br label %69

69:                                               ; preds = %68
  %70 = load i32, ptr %3, align 4, !tbaa !9
  %71 = load ptr, ptr %2, align 8, !tbaa !4
  %72 = getelementptr inbounds nuw %struct.SyncQueue, ptr %71, i32 0, i32 3
  store i32 %70, ptr %72, align 4, !tbaa !63
  store i32 0, ptr %5, align 4
  br label %73

73:                                               ; preds = %69, %60
  call void @llvm.lifetime.end.p0(i64 4, ptr %3) #8
  %74 = load i32, ptr %5, align 4
  switch i32 %74, label %132 [
    i32 0, label %75
    i32 1, label %131
  ]

75:                                               ; preds = %73
  br label %76

76:                                               ; preds = %75, %17
  call void @llvm.lifetime.start.p0(i64 4, ptr %7) #8
  store i32 0, ptr %7, align 4, !tbaa !9
  br label %77

77:                                               ; preds = %128, %76
  %78 = load i32, ptr %7, align 4, !tbaa !9
  %79 = load ptr, ptr %2, align 8, !tbaa !4
  %80 = getelementptr inbounds nuw %struct.SyncQueue, ptr %79, i32 0, i32 7
  %81 = load i32, ptr %80, align 8, !tbaa !11
  %82 = icmp ult i32 %78, %81
  br i1 %82, label %84, label %83

83:                                               ; preds = %77
  store i32 9, ptr %5, align 4
  call void @llvm.lifetime.end.p0(i64 4, ptr %7) #8
  br label %131

84:                                               ; preds = %77
  call void @llvm.lifetime.start.p0(i64 8, ptr %8) #8
  %85 = load ptr, ptr %2, align 8, !tbaa !4
  %86 = getelementptr inbounds nuw %struct.SyncQueue, ptr %85, i32 0, i32 6
  %87 = load ptr, ptr %86, align 8, !tbaa !15
  %88 = load ptr, ptr %2, align 8, !tbaa !4
  %89 = getelementptr inbounds nuw %struct.SyncQueue, ptr %88, i32 0, i32 3
  %90 = load i32, ptr %89, align 4, !tbaa !63
  %91 = sext i32 %90 to i64
  %92 = getelementptr inbounds %struct.SyncQueueStream, ptr %87, i64 %91
  store ptr %92, ptr %8, align 8, !tbaa !16
  call void @llvm.lifetime.start.p0(i64 8, ptr %9) #8
  %93 = load ptr, ptr %2, align 8, !tbaa !4
  %94 = getelementptr inbounds nuw %struct.SyncQueue, ptr %93, i32 0, i32 6
  %95 = load ptr, ptr %94, align 8, !tbaa !15
  %96 = load i32, ptr %7, align 4, !tbaa !9
  %97 = zext i32 %96 to i64
  %98 = getelementptr inbounds nuw %struct.SyncQueueStream, ptr %95, i64 %97
  store ptr %98, ptr %9, align 8, !tbaa !16
  %99 = load ptr, ptr %9, align 8, !tbaa !16
  %100 = getelementptr inbounds nuw %struct.SyncQueueStream, ptr %99, i32 0, i32 4
  %101 = load i32, ptr %100, align 8, !tbaa !44
  %102 = icmp ne i32 %101, 0
  br i1 %102, label %103, label %127

103:                                              ; preds = %84
  %104 = load ptr, ptr %9, align 8, !tbaa !16
  %105 = getelementptr inbounds nuw %struct.SyncQueueStream, ptr %104, i32 0, i32 3
  %106 = load i64, ptr %105, align 8, !tbaa !43
  %107 = icmp ne i64 %106, -9223372036854775808
  br i1 %107, label %108, label %127

108:                                              ; preds = %103
  %109 = load ptr, ptr %9, align 8, !tbaa !16
  %110 = getelementptr inbounds nuw %struct.SyncQueueStream, ptr %109, i32 0, i32 3
  %111 = load i64, ptr %110, align 8, !tbaa !43
  %112 = load ptr, ptr %9, align 8, !tbaa !16
  %113 = getelementptr inbounds nuw %struct.SyncQueueStream, ptr %112, i32 0, i32 1
  %114 = load ptr, ptr %8, align 8, !tbaa !16
  %115 = getelementptr inbounds nuw %struct.SyncQueueStream, ptr %114, i32 0, i32 3
  %116 = load i64, ptr %115, align 8, !tbaa !43
  %117 = load ptr, ptr %8, align 8, !tbaa !16
  %118 = getelementptr inbounds nuw %struct.SyncQueueStream, ptr %117, i32 0, i32 1
  %119 = load i64, ptr %113, align 8
  %120 = load i64, ptr %118, align 8
  %121 = call i32 @av_compare_ts(i64 noundef %111, i64 %119, i64 noundef %116, i64 %120)
  %122 = icmp slt i32 %121, 0
  br i1 %122, label %123, label %127

123:                                              ; preds = %108
  %124 = load i32, ptr %7, align 4, !tbaa !9
  %125 = load ptr, ptr %2, align 8, !tbaa !4
  %126 = getelementptr inbounds nuw %struct.SyncQueue, ptr %125, i32 0, i32 3
  store i32 %124, ptr %126, align 4, !tbaa !63
  br label %127

127:                                              ; preds = %123, %108, %103, %84
  call void @llvm.lifetime.end.p0(i64 8, ptr %9) #8
  call void @llvm.lifetime.end.p0(i64 8, ptr %8) #8
  br label %128

128:                                              ; preds = %127
  %129 = load i32, ptr %7, align 4, !tbaa !9
  %130 = add i32 %129, 1
  store i32 %130, ptr %7, align 4, !tbaa !9
  br label %77, !llvm.loop !76

131:                                              ; preds = %73, %83
  ret void

132:                                              ; preds = %73
  unreachable
}

; Function Attrs: nounwind uwtable
define internal void @stream_update_ts(ptr noundef %0, i32 noundef %1, i64 noundef %2) #0 {
  %4 = alloca ptr, align 8
  %5 = alloca i32, align 4
  %6 = alloca i64, align 8
  %7 = alloca ptr, align 8
  %8 = alloca i32, align 4
  store ptr %0, ptr %4, align 8, !tbaa !4
  store i32 %1, ptr %5, align 4, !tbaa !9
  store i64 %2, ptr %6, align 8, !tbaa !35
  call void @llvm.lifetime.start.p0(i64 8, ptr %7) #8
  %9 = load ptr, ptr %4, align 8, !tbaa !4
  %10 = getelementptr inbounds nuw %struct.SyncQueue, ptr %9, i32 0, i32 6
  %11 = load ptr, ptr %10, align 8, !tbaa !15
  %12 = load i32, ptr %5, align 4, !tbaa !9
  %13 = zext i32 %12 to i64
  %14 = getelementptr inbounds nuw %struct.SyncQueueStream, ptr %11, i64 %13
  store ptr %14, ptr %7, align 8, !tbaa !16
  %15 = load i64, ptr %6, align 8, !tbaa !35
  %16 = icmp eq i64 %15, -9223372036854775808
  br i1 %16, label %28, label %17

17:                                               ; preds = %3
  %18 = load ptr, ptr %7, align 8, !tbaa !16
  %19 = getelementptr inbounds nuw %struct.SyncQueueStream, ptr %18, i32 0, i32 3
  %20 = load i64, ptr %19, align 8, !tbaa !43
  %21 = icmp ne i64 %20, -9223372036854775808
  br i1 %21, label %22, label %29

22:                                               ; preds = %17
  %23 = load ptr, ptr %7, align 8, !tbaa !16
  %24 = getelementptr inbounds nuw %struct.SyncQueueStream, ptr %23, i32 0, i32 3
  %25 = load i64, ptr %24, align 8, !tbaa !43
  %26 = load i64, ptr %6, align 8, !tbaa !35
  %27 = icmp sge i64 %25, %26
  br i1 %27, label %28, label %29

28:                                               ; preds = %22, %3
  store i32 1, ptr %8, align 4
  br label %86

29:                                               ; preds = %22, %17
  %30 = load i64, ptr %6, align 8, !tbaa !35
  %31 = load ptr, ptr %7, align 8, !tbaa !16
  %32 = getelementptr inbounds nuw %struct.SyncQueueStream, ptr %31, i32 0, i32 3
  store i64 %30, ptr %32, align 8, !tbaa !43
  %33 = load ptr, ptr %4, align 8, !tbaa !4
  %34 = getelementptr inbounds nuw %struct.SyncQueue, ptr %33, i32 0, i32 4
  %35 = load i32, ptr %34, align 8, !tbaa !45
  %36 = icmp sge i32 %35, 0
  br i1 %36, label %37, label %67

37:                                               ; preds = %29
  %38 = load ptr, ptr %4, align 8, !tbaa !4
  %39 = getelementptr inbounds nuw %struct.SyncQueue, ptr %38, i32 0, i32 6
  %40 = load ptr, ptr %39, align 8, !tbaa !15
  %41 = load ptr, ptr %4, align 8, !tbaa !4
  %42 = getelementptr inbounds nuw %struct.SyncQueue, ptr %41, i32 0, i32 4
  %43 = load i32, ptr %42, align 8, !tbaa !45
  %44 = sext i32 %43 to i64
  %45 = getelementptr inbounds %struct.SyncQueueStream, ptr %40, i64 %44
  %46 = getelementptr inbounds nuw %struct.SyncQueueStream, ptr %45, i32 0, i32 3
  %47 = load i64, ptr %46, align 8, !tbaa !43
  %48 = load ptr, ptr %4, align 8, !tbaa !4
  %49 = getelementptr inbounds nuw %struct.SyncQueue, ptr %48, i32 0, i32 6
  %50 = load ptr, ptr %49, align 8, !tbaa !15
  %51 = load ptr, ptr %4, align 8, !tbaa !4
  %52 = getelementptr inbounds nuw %struct.SyncQueue, ptr %51, i32 0, i32 4
  %53 = load i32, ptr %52, align 8, !tbaa !45
  %54 = sext i32 %53 to i64
  %55 = getelementptr inbounds %struct.SyncQueueStream, ptr %50, i64 %54
  %56 = getelementptr inbounds nuw %struct.SyncQueueStream, ptr %55, i32 0, i32 1
  %57 = load i64, ptr %6, align 8, !tbaa !35
  %58 = load ptr, ptr %7, align 8, !tbaa !16
  %59 = getelementptr inbounds nuw %struct.SyncQueueStream, ptr %58, i32 0, i32 1
  %60 = load i64, ptr %56, align 8
  %61 = load i64, ptr %59, align 8
  %62 = call i32 @av_compare_ts(i64 noundef %47, i64 %60, i64 noundef %57, i64 %61)
  %63 = icmp sle i32 %62, 0
  br i1 %63, label %64, label %67

64:                                               ; preds = %37
  %65 = load ptr, ptr %4, align 8, !tbaa !4
  %66 = load i32, ptr %5, align 4, !tbaa !9
  call void @finish_stream(ptr noundef %65, i32 noundef %66)
  br label %67

67:                                               ; preds = %64, %37, %29
  %68 = load ptr, ptr %7, align 8, !tbaa !16
  %69 = getelementptr inbounds nuw %struct.SyncQueueStream, ptr %68, i32 0, i32 4
  %70 = load i32, ptr %69, align 8, !tbaa !44
  %71 = icmp ne i32 %70, 0
  br i1 %71, label %72, label %85

72:                                               ; preds = %67
  %73 = load ptr, ptr %4, align 8, !tbaa !4
  %74 = getelementptr inbounds nuw %struct.SyncQueue, ptr %73, i32 0, i32 3
  %75 = load i32, ptr %74, align 4, !tbaa !63
  %76 = icmp slt i32 %75, 0
  br i1 %76, label %83, label %77

77:                                               ; preds = %72
  %78 = load ptr, ptr %4, align 8, !tbaa !4
  %79 = getelementptr inbounds nuw %struct.SyncQueue, ptr %78, i32 0, i32 3
  %80 = load i32, ptr %79, align 4, !tbaa !63
  %81 = load i32, ptr %5, align 4, !tbaa !9
  %82 = icmp eq i32 %80, %81
  br i1 %82, label %83, label %85

83:                                               ; preds = %77, %72
  %84 = load ptr, ptr %4, align 8, !tbaa !4
  call void @queue_head_update(ptr noundef %84)
  br label %85

85:                                               ; preds = %83, %77, %67
  store i32 0, ptr %8, align 4
  br label %86

86:                                               ; preds = %85, %28
  call void @llvm.lifetime.end.p0(i64 8, ptr %7) #8
  %87 = load i32, ptr %8, align 4
  switch i32 %87, label %89 [
    i32 0, label %88
    i32 1, label %88
  ]

88:                                               ; preds = %86, %86
  ret void

89:                                               ; preds = %86
  unreachable
}