; Function Attrs: nounwind uwtable
define internal fastcc void @stream_update_ts(ptr noundef captures(none) %0, i32 noundef %1, i64 noundef %2) unnamed_addr #0 {
  %4 = getelementptr inbounds nuw i8, ptr %0, i64 40
  %5 = load ptr, ptr %4, align 8, !tbaa !12
  %6 = zext i32 %1 to i64
  %7 = getelementptr inbounds nuw %struct.SyncQueueStream, ptr %5, i64 %6
  %8 = icmp eq i64 %2, -9223372036854775808
  br i1 %8, label %queue_head_update.exit, label %9

9:                                                ; preds = %3
  %10 = getelementptr inbounds nuw i8, ptr %7, i64 24
  %11 = load i64, ptr %10, align 8, !tbaa !23
  %.not24 = icmp slt i64 %11, %2
  br i1 %.not24, label %12, label %queue_head_update.exit

12:                                               ; preds = %9
  store i64 %2, ptr %10, align 8, !tbaa !23
  %13 = getelementptr inbounds nuw i8, ptr %0, i64 24
  %14 = load i32, ptr %13, align 8, !tbaa !42
  %15 = icmp sgt i32 %14, -1
  br i1 %15, label %16, label %28

16:                                               ; preds = %12
  %17 = zext nneg i32 %14 to i64
  %18 = getelementptr inbounds nuw %struct.SyncQueueStream, ptr %5, i64 %17
  %19 = getelementptr inbounds nuw i8, ptr %18, i64 24
  %20 = load i64, ptr %19, align 8, !tbaa !23
  %21 = getelementptr inbounds nuw i8, ptr %18, i64 8
  %22 = getelementptr inbounds nuw i8, ptr %7, i64 8
  %23 = load i64, ptr %21, align 8
  %24 = load i64, ptr %22, align 8
  %25 = tail call i32 @av_compare_ts(i64 noundef %20, i64 %23, i64 noundef %2, i64 %24) #7
  %26 = icmp slt i32 %25, 1
  br i1 %26, label %27, label %28

27:                                               ; preds = %16
  tail call fastcc void @finish_stream(ptr noundef nonnull %0, i32 noundef %1)
  br label %28

28:                                               ; preds = %27, %16, %12
  %29 = getelementptr inbounds nuw i8, ptr %7, i64 32
  %30 = load i32, ptr %29, align 8, !tbaa !41
  %.not25 = icmp eq i32 %30, 0
  br i1 %.not25, label %queue_head_update.exit, label %31

31:                                               ; preds = %28
  %32 = getelementptr inbounds nuw i8, ptr %0, i64 20
  %33 = load i32, ptr %32, align 4, !tbaa !47
  %34 = icmp slt i32 %33, 0
  %35 = icmp eq i32 %33, %1
  %or.cond26 = or i1 %34, %35
  br i1 %or.cond26, label %36, label %queue_head_update.exit

36:                                               ; preds = %31
  %37 = getelementptr inbounds nuw i8, ptr %0, i64 52
  %38 = load i32, ptr %37, align 4, !tbaa !48
  %.not.i = icmp eq i32 %38, 0
  br i1 %.not.i, label %39, label %40

39:                                               ; preds = %36
  tail call void (ptr, i32, ptr, ...) @av_log(ptr noundef null, i32 noundef 0, ptr noundef nonnull @.str, ptr noundef nonnull @.str.13, ptr noundef nonnull @.str.2, i32 noundef 210) #7
  tail call void @abort() #8
  unreachable

40:                                               ; preds = %36
  %41 = getelementptr inbounds nuw i8, ptr %0, i64 48
  %42 = load i32, ptr %41, align 8, !tbaa !4
  br i1 %34, label %.preheader.i, label %._crit_edge66.i

.preheader.i:                                     ; preds = %40
  %.not59.i = icmp eq i32 %42, 0
  br i1 %.not59.i, label %._crit_edge.thread.i, label %.lr.ph.i

.lr.ph.i:                                         ; preds = %.preheader.i
  %43 = load ptr, ptr %4, align 8, !tbaa !12
  %wide.trip.count.i = zext i32 %42 to i64
  br label %44

44:                                               ; preds = %55, %.lr.ph.i
  %indvars.iv.i = phi i64 [ 0, %.lr.ph.i ], [ %indvars.iv.next.i, %55 ]
  %.055.i = phi i32 [ -1, %.lr.ph.i ], [ %.2.ph.i, %55 ]
  %45 = getelementptr inbounds nuw %struct.SyncQueueStream, ptr %43, i64 %indvars.iv.i
  %46 = getelementptr inbounds nuw i8, ptr %45, i64 32
  %47 = load i32, ptr %46, align 8, !tbaa !41
  %.not37.i = icmp eq i32 %47, 0
  br i1 %.not37.i, label %55, label %48

48:                                               ; preds = %44
  %49 = getelementptr inbounds nuw i8, ptr %45, i64 24
  %50 = load i64, ptr %49, align 8, !tbaa !23
  %51 = icmp eq i64 %50, -9223372036854775808
  br i1 %51, label %queue_head_update.exit, label %52

52:                                               ; preds = %48
  %53 = icmp eq i32 %.055.i, -1
  %54 = trunc nuw i64 %indvars.iv.i to i32
  %spec.select.i = select i1 %53, i32 %54, i32 %.055.i
  br label %55

55:                                               ; preds = %52, %44
  %.2.ph.i = phi i32 [ %.055.i, %44 ], [ %spec.select.i, %52 ]
  %indvars.iv.next.i = add nuw nsw i64 %indvars.iv.i, 1
  %exitcond.not.i = icmp eq i64 %indvars.iv.next.i, %wide.trip.count.i
  br i1 %exitcond.not.i, label %._crit_edge.i, label %44, !llvm.loop !49

._crit_edge.i:                                    ; preds = %55
  %.not38.i = icmp eq i32 %.2.ph.i, -1
  br i1 %.not38.i, label %._crit_edge.thread.i, label %.thread49.i

._crit_edge.thread.i:                             ; preds = %._crit_edge.i, %.preheader.i
  tail call void (ptr, i32, ptr, ...) @av_log(ptr noundef null, i32 noundef 0, ptr noundef nonnull @.str, ptr noundef nonnull @.str.14, ptr noundef nonnull @.str.2, i32 noundef 228) #7
  tail call void @abort() #8
  unreachable

.thread49.i:                                      ; preds = %._crit_edge.i
  store i32 %.2.ph.i, ptr %32, align 4, !tbaa !47
  br label %._crit_edge66.i

._crit_edge66.i:                                  ; preds = %.thread49.i, %40
  %.not60.i = icmp eq i32 %42, 0
  br i1 %.not60.i, label %queue_head_update.exit, label %.lr.ph58.i

.lr.ph58.i:                                       ; preds = %._crit_edge66.i, %77
  %indvars.iv63.i = phi i64 [ %indvars.iv.next64.i, %77 ], [ 0, %._crit_edge66.i ]
  %56 = load ptr, ptr %4, align 8, !tbaa !12
  %57 = load i32, ptr %32, align 4, !tbaa !47
  %58 = sext i32 %57 to i64
  %59 = getelementptr inbounds %struct.SyncQueueStream, ptr %56, i64 %58
  %60 = getelementptr inbounds nuw %struct.SyncQueueStream, ptr %56, i64 %indvars.iv63.i
  %61 = getelementptr inbounds nuw i8, ptr %60, i64 32
  %62 = load i32, ptr %61, align 8, !tbaa !41
  %.not39.i = icmp eq i32 %62, 0
  br i1 %.not39.i, label %77, label %63

63:                                               ; preds = %.lr.ph58.i
  %64 = getelementptr inbounds nuw i8, ptr %60, i64 24
  %65 = load i64, ptr %64, align 8, !tbaa !23
  %.not40.i = icmp eq i64 %65, -9223372036854775808
  br i1 %.not40.i, label %77, label %66

66:                                               ; preds = %63
  %67 = getelementptr inbounds nuw i8, ptr %60, i64 8
  %68 = getelementptr inbounds nuw i8, ptr %59, i64 24
  %69 = load i64, ptr %68, align 8, !tbaa !23
  %70 = getelementptr inbounds nuw i8, ptr %59, i64 8
  %71 = load i64, ptr %67, align 8
  %72 = load i64, ptr %70, align 8
  %73 = tail call i32 @av_compare_ts(i64 noundef %65, i64 %71, i64 noundef %69, i64 %72) #7
  %74 = icmp slt i32 %73, 0
  br i1 %74, label %75, label %77

75:                                               ; preds = %66
  %76 = trunc nuw i64 %indvars.iv63.i to i32
  store i32 %76, ptr %32, align 4, !tbaa !47
  br label %77

77:                                               ; preds = %75, %66, %63, %.lr.ph58.i
  %indvars.iv.next64.i = add nuw nsw i64 %indvars.iv63.i, 1
  %78 = load i32, ptr %41, align 8, !tbaa !4
  %79 = zext i32 %78 to i64
  %80 = icmp samesign ult i64 %indvars.iv.next64.i, %79
  br i1 %80, label %.lr.ph58.i, label %queue_head_update.exit, !llvm.loop !50

queue_head_update.exit:                           ; preds = %48, %77, %._crit_edge66.i, %28, %31, %3, %9
  ret void
}